target datalayout = "e-m:e-p270:32:32-p271:32:32-p272:64:64-i64:64-f80:128-n8:16:32:64-S128"
target triple = "x86_64-pc-linux-gnu"

@.str = private unnamed_addr constant [5 x i8] c"%d%d\00", align 1
@.str.1 = private unnamed_addr constant [4 x i8] c"%d \00", align 1
@.str.2 = private unnamed_addr constant [4 x i8] c"%d\0A\00", align 1

; Function Attrs: noinline nounwind uwtable
define dso_local i32 @main() #0 {
  %1 = alloca i32, align 4
  %2 = alloca [5 x [11 x [11 x i32]]], align 16
  %3 = alloca i32, align 4
  %4 = alloca i32, align 4
  %5 = alloca i32, align 4
  %6 = alloca i32, align 4
  store i32 0, i32* %1, align 4
  %7 = bitcast [5 x [11 x [11 x i32]]]* %2 to i8*
  call void @llvm.memset.p0i8.i64(i8* align 16 %7, i8 0, i64 2420, i1 false)
  %8 = getelementptr inbounds [5 x [11 x [11 x i32]]], [5 x [11 x [11 x i32]]]* %2, i64 0, i64 0
  %9 = getelementptr inbounds [11 x [11 x i32]], [11 x [11 x i32]]* %8, i64 0, i64 5
  %10 = getelementptr inbounds [11 x i32], [11 x i32]* %9, i64 0, i64 5
  %11 = call i32 (i8*, ...) @__isoc99_scanf(i8* getelementptr inbounds ([5 x i8], [5 x i8]* @.str, i64 0, i64 0), i32* %10, i32* %3)
  store i32 1, i32* %4, align 4
  br label %12

12:                                               ; preds = %162, %0
  %13 = load i32, i32* %4, align 4
  %14 = load i32, i32* %3, align 4
  %15 = icmp sle i32 %13, %14
  br i1 %15, label %16, label %165

16:                                               ; preds = %12
  store i32 1, i32* %5, align 4
  br label %17

17:                                               ; preds = %158, %16
  %18 = load i32, i32* %5, align 4
  %19 = icmp sle i32 %18, 9
  br i1 %19, label %20, label %161

20:                                               ; preds = %17
  store i32 1, i32* %6, align 4
  br label %21

21:                                               ; preds = %154, %20
  %22 = load i32, i32* %6, align 4
  %23 = icmp sle i32 %22, 9
  br i1 %23, label %24, label %157

24:                                               ; preds = %21
  %25 = load i32, i32* %4, align 4
  %26 = sub nsw i32 %25, 1
  %27 = sext i32 %26 to i64
  %28 = getelementptr inbounds [5 x [11 x [11 x i32]]], [5 x [11 x [11 x i32]]]* %2, i64 0, i64 %27
  %29 = load i32, i32* %5, align 4
  %30 = sext i32 %29 to i64
  %31 = getelementptr inbounds [11 x [11 x i32]], [11 x [11 x i32]]* %28, i64 0, i64 %30
  %32 = load i32, i32* %6, align 4
  %33 = sext i32 %32 to i64
  %34 = getelementptr inbounds [11 x i32], [11 x i32]* %31, i64 0, i64 %33
  %35 = load i32, i32* %34, align 4
  %36 = mul nsw i32 %35, 2
  %37 = load i32, i32* %4, align 4
  %38 = sub nsw i32 %37, 1
  %39 = sext i32 %38 to i64
  %40 = getelementptr inbounds [5 x [11 x [11 x i32]]], [5 x [11 x [11 x i32]]]* %2, i64 0, i64 %39
  %41 = load i32, i32* %5, align 4
  %42 = sub nsw i32 %41, 1
  %43 = sext i32 %42 to i64
  %44 = getelementptr inbounds [11 x [11 x i32]], [11 x [11 x i32]]* %40, i64 0, i64 %43
  %45 = load i32, i32* %6, align 4
  %46 = sub nsw i32 %45, 1
  %47 = sext i32 %46 to i64
  %48 = getelementptr inbounds [11 x i32], [11 x i32]* %44, i64 0, i64 %47
  %49 = load i32, i32* %48, align 4
  %50 = add nsw i32 %36, %49
  %51 = load i32, i32* %4, align 4
  %52 = sub nsw i32 %51, 1
  %53 = sext i32 %52 to i64
  %54 = getelementptr inbounds [5 x [11 x [11 x i32]]], [5 x [11 x [11 x i32]]]* %2, i64 0, i64 %53
  %55 = load i32, i32* %5, align 4
  %56 = sub nsw i32 %55, 1
  %57 = sext i32 %56 to i64
  %58 = getelementptr inbounds [11 x [11 x i32]], [11 x [11 x i32]]* %54, i64 0, i64 %57
  %59 = load i32, i32* %6, align 4
  %60 = sext i32 %59 to i64
  %61 = getelementptr inbounds [11 x i32], [11 x i32]* %58, i64 0, i64 %60
  %62 = load i32, i32* %61, align 4
  %63 = add nsw i32 %50, %62
  %64 = load i32, i32* %4, align 4
  %65 = sub nsw i32 %64, 1
  %66 = sext i32 %65 to i64
  %67 = getelementptr inbounds [5 x [11 x [11 x i32]]], [5 x [11 x [11 x i32]]]* %2, i64 0, i64 %66
  %68 = load i32, i32* %5, align 4
  %69 = sub nsw i32 %68, 1
  %70 = sext i32 %69 to i64
  %71 = getelementptr inbounds [11 x [11 x i32]], [11 x [11 x i32]]* %67, i64 0, i64 %70
  %72 = load i32, i32* %6, align 4
  %73 = add nsw i32 %72, 1
  %74 = sext i32 %73 to i64
  %75 = getelementptr inbounds [11 x i32], [11 x i32]* %71, i64 0, i64 %74
  %76 = load i32, i32* %75, align 4
  %77 = add nsw i32 %63, %76
  %78 = load i32, i32* %4, align 4
  %79 = sub nsw i32 %78, 1
  %80 = sext i32 %79 to i64
  %81 = getelementptr inbounds [5 x [11 x [11 x i32]]], [5 x [11 x [11 x i32]]]* %2, i64 0, i64 %80
  %82 = load i32, i32* %5, align 4
  %83 = sext i32 %82 to i64
  %84 = getelementptr inbounds [11 x [11 x i32]], [11 x [11 x i32]]* %81, i64 0, i64 %83
  %85 = load i32, i32* %6, align 4
  %86 = sub nsw i32 %85, 1
  %87 = sext i32 %86 to i64
  %88 = getelementptr inbounds [11 x i32], [11 x i32]* %84, i64 0, i64 %87
  %89 = load i32, i32* %88, align 4
  %90 = add nsw i32 %77, %89
  %91 = load i32, i32* %4, align 4
  %92 = sub nsw i32 %91, 1
  %93 = sext i32 %92 to i64
  %94 = getelementptr inbounds [5 x [11 x [11 x i32]]], [5 x [11 x [11 x i32]]]* %2, i64 0, i64 %93
  %95 = load i32, i32* %5, align 4
  %96 = sext i32 %95 to i64
  %97 = getelementptr inbounds [11 x [11 x i32]], [11 x [11 x i32]]* %94, i64 0, i64 %96
  %98 = load i32, i32* %6, align 4
  %99 = add nsw i32 %98, 1
  %100 = sext i32 %99 to i64
  %101 = getelementptr inbounds [11 x i32], [11 x i32]* %97, i64 0, i64 %100
  %102 = load i32, i32* %101, align 4
  %103 = add nsw i32 %90, %102
  %104 = load i32, i32* %4, align 4
  %105 = sub nsw i32 %104, 1
  %106 = sext i32 %105 to i64
  %107 = getelementptr inbounds [5 x [11 x [11 x i32]]], [5 x [11 x [11 x i32]]]* %2, i64 0, i64 %106
  %108 = load i32, i32* %5, align 4
  %109 = add nsw i32 %108, 1
  %110 = sext i32 %109 to i64
  %111 = getelementptr inbounds [11 x [11 x i32]], [11 x [11 x i32]]* %107, i64 0, i64 %110
  %112 = load i32, i32* %6, align 4
  %113 = sub nsw i32 %112, 1
  %114 = sext i32 %113 to i64
  %115 = getelementptr inbounds [11 x i32], [11 x i32]* %111, i64 0, i64 %114
  %116 = load i32, i32* %115, align 4
  %117 = add nsw i32 %103, %116
  %118 = load i32, i32* %4, align 4
  %119 = sub nsw i32 %118, 1
  %120 = sext i32 %119 to i64
  %121 = getelementptr inbounds [5 x [11 x [11 x i32]]], [5 x [11 x [11 x i32]]]* %2, i64 0, i64 %120
  %122 = load i32, i32* %5, align 4
  %123 = add nsw i32 %122, 1
  %124 = sext i32 %123 to i64
  %125 = getelementptr inbounds [11 x [11 x i32]], [11 x [11 x i32]]* %121, i64 0, i64 %124
  %126 = load i32, i32* %6, align 4
  %127 = sext i32 %126 to i64
  %128 = getelementptr inbounds [11 x i32], [11 x i32]* %125, i64 0, i64 %127
  %129 = load i32, i32* %128, align 4
  %130 = add nsw i32 %117, %129
  %131 = load i32, i32* %4, align 4
  %132 = sub nsw i32 %131, 1
  %133 = sext i32 %132 to i64
  %134 = getelementptr inbounds [5 x [11 x [11 x i32]]], [5 x [11 x [11 x i32]]]* %2, i64 0, i64 %133
  %135 = load i32, i32* %5, align 4
  %136 = add nsw i32 %135, 1
  %137 = sext i32 %136 to i64
  %138 = getelementptr inbounds [11 x [11 x i32]], [11 x [11 x i32]]* %134, i64 0, i64 %137
  %139 = load i32, i32* %6, align 4
  %140 = add nsw i32 %139, 1
  %141 = sext i32 %140 to i64
  %142 = getelementptr inbounds [11 x i32], [11 x i32]* %138, i64 0, i64 %141
  %143 = load i32, i32* %142, align 4
  %144 = add nsw i32 %130, %143
  %145 = load i32, i32* %4, align 4
  %146 = sext i32 %145 to i64
  %147 = getelementptr inbounds [5 x [11 x [11 x i32]]], [5 x [11 x [11 x i32]]]* %2, i64 0, i64 %146
  %148 = load i32, i32* %5, align 4
  %149 = sext i32 %148 to i64
  %150 = getelementptr inbounds [11 x [11 x i32]], [11 x [11 x i32]]* %147, i64 0, i64 %149
  %151 = load i32, i32* %6, align 4
  %152 = sext i32 %151 to i64
  %153 = getelementptr inbounds [11 x i32], [11 x i32]* %150, i64 0, i64 %152
  store i32 %144, i32* %153, align 4
  br label %154

154:                                              ; preds = %24
  %155 = load i32, i32* %6, align 4
  %156 = add nsw i32 %155, 1
  store i32 %156, i32* %6, align 4
  br label %21

157:                                              ; preds = %21
  br label %158

158:                                              ; preds = %157
  %159 = load i32, i32* %5, align 4
  %160 = add nsw i32 %159, 1
  store i32 %160, i32* %5, align 4
  br label %17

161:                                              ; preds = %17
  br label %162

162:                                              ; preds = %161
  %163 = load i32, i32* %4, align 4
  %164 = add nsw i32 %163, 1
  store i32 %164, i32* %4, align 4
  br label %12

165:                                              ; preds = %12
  store i32 1, i32* %5, align 4
  br label %166

166:                                              ; preds = %200, %165
  %167 = load i32, i32* %5, align 4
  %168 = icmp sle i32 %167, 9
  br i1 %168, label %169, label %203

169:                                              ; preds = %166
  store i32 1, i32* %6, align 4
  br label %170

170:                                              ; preds = %186, %169
  %171 = load i32, i32* %6, align 4
  %172 = icmp slt i32 %171, 9
  br i1 %172, label %173, label %189

173:                                              ; preds = %170
  %174 = load i32, i32* %4, align 4
  %175 = sub nsw i32 %174, 1
  %176 = sext i32 %175 to i64
  %177 = getelementptr inbounds [5 x [11 x [11 x i32]]], [5 x [11 x [11 x i32]]]* %2, i64 0, i64 %176
  %178 = load i32, i32* %5, align 4
  %179 = sext i32 %178 to i64
  %180 = getelementptr inbounds [11 x [11 x i32]], [11 x [11 x i32]]* %177, i64 0, i64 %179
  %181 = load i32, i32* %6, align 4
  %182 = sext i32 %181 to i64
  %183 = getelementptr inbounds [11 x i32], [11 x i32]* %180, i64 0, i64 %182
  %184 = load i32, i32* %183, align 4
  %185 = call i32 (i8*, ...) @printf(i8* getelementptr inbounds ([4 x i8], [4 x i8]* @.str.1, i64 0, i64 0), i32 %184)
  br label %186

186:                                              ; preds = %173
  %187 = load i32, i32* %6, align 4
  %188 = add nsw i32 %187, 1
  store i32 %188, i32* %6, align 4
  br label %170

189:                                              ; preds = %170
  %190 = load i32, i32* %4, align 4
  %191 = sub nsw i32 %190, 1
  %192 = sext i32 %191 to i64
  %193 = getelementptr inbounds [5 x [11 x [11 x i32]]], [5 x [11 x [11 x i32]]]* %2, i64 0, i64 %192
  %194 = load i32, i32* %5, align 4
  %195 = sext i32 %194 to i64
  %196 = getelementptr inbounds [11 x [11 x i32]], [11 x [11 x i32]]* %193, i64 0, i64 %195
  %197 = getelementptr inbounds [11 x i32], [11 x i32]* %196, i64 0, i64 9
  %198 = load i32, i32* %197, align 4
  %199 = call i32 (i8*, ...) @printf(i8* getelementptr inbounds ([4 x i8], [4 x i8]* @.str.2, i64 0, i64 0), i32 %198)
  br label %200

200:                                              ; preds = %189
  %201 = load i32, i32* %5, align 4
  %202 = add nsw i32 %201, 1
  store i32 %202, i32* %5, align 4
  br label %166

203:                                              ; preds = %166
  ret i32 0
}